; ModuleID = '51/137.c'
source_filename = "51/137.c"
target datalayout = "e-m:e-p270:32:32-p271:32:32-p272:64:64-i64:64-f80:128-n8:16:32:64-S128"
target triple = "x86_64-pc-linux-gnu"

@.str = private unnamed_addr constant [4 x i8] c"%d\0A\00", align 1
@.str.1 = private unnamed_addr constant [3 x i8] c"%s\00", align 1
@.str.2 = private unnamed_addr constant [3 x i8] c"NO\00", align 1
@.str.3 = private unnamed_addr constant [4 x i8] c"%s\0A\00", align 1

; Function Attrs: noinline nounwind uwtable
define dso_local void @main() #0 {
  %1 = alloca i32, align 4
  %2 = alloca i32, align 4
  %3 = alloca [500 x i8], align 16
  %4 = alloca [500 x [50 x i8]], align 16
  %5 = alloca [500 x i32], align 16
  %6 = alloca [500 x i32], align 16
  %7 = alloca i32, align 4
  %8 = alloca i32, align 4
  %9 = alloca i32, align 4
  %10 = alloca i32, align 4
  %11 = bitcast [500 x i32]* %5 to i8*
  call void @llvm.memset.p0i8.i64(i8* align 16 %11, i8 0, i64 2000, i1 false)
  %12 = bitcast [500 x i32]* %6 to i8*
  call void @llvm.memset.p0i8.i64(i8* align 16 %12, i8 0, i64 2000, i1 false)
  store i32 0, i32* %9, align 4
  store i32 0, i32* %10, align 4
  %13 = call i32 (i8*, ...) @__isoc99_scanf(i8* getelementptr inbounds ([4 x i8], [4 x i8]* @.str, i64 0, i64 0), i32* %1)
  %14 = getelementptr inbounds [500 x i8], [500 x i8]* %3, i64 0, i64 0
  %15 = call i32 (i8*, ...) @__isoc99_scanf(i8* getelementptr inbounds ([3 x i8], [3 x i8]* @.str.1, i64 0, i64 0), i8* %14)
  %16 = getelementptr inbounds [500 x i8], [500 x i8]* %3, i64 0, i64 0
  %17 = call i64 @strlen(i8* %16) #4
  %18 = trunc i64 %17 to i32
  store i32 %18, i32* %2, align 4
  store i32 0, i32* %7, align 4
  br label %19

19:                                               ; preds = %61, %0
  %20 = load i32, i32* %7, align 4
  %21 = load i32, i32* %2, align 4
  %22 = load i32, i32* %1, align 4
  %23 = sub nsw i32 %21, %22
  %24 = icmp sle i32 %20, %23
  br i1 %24, label %25, label %64

25:                                               ; preds = %19
  %26 = load i32, i32* %7, align 4
  store i32 %26, i32* %8, align 4
  br label %27

27:                                               ; preds = %47, %25
  %28 = load i32, i32* %8, align 4
  %29 = load i32, i32* %7, align 4
  %30 = load i32, i32* %1, align 4
  %31 = add nsw i32 %29, %30
  %32 = sub nsw i32 %31, 1
  %33 = icmp sle i32 %28, %32
  br i1 %33, label %34, label %50

34:                                               ; preds = %27
  %35 = load i32, i32* %8, align 4
  %36 = sext i32 %35 to i64
  %37 = getelementptr inbounds [500 x i8], [500 x i8]* %3, i64 0, i64 %36
  %38 = load i8, i8* %37, align 1
  %39 = load i32, i32* %9, align 4
  %40 = sext i32 %39 to i64
  %41 = getelementptr inbounds [500 x [50 x i8]], [500 x [50 x i8]]* %4, i64 0, i64 %40
  %42 = load i32, i32* %8, align 4
  %43 = load i32, i32* %7, align 4
  %44 = sub nsw i32 %42, %43
  %45 = sext i32 %44 to i64
  %46 = getelementptr inbounds [50 x i8], [50 x i8]* %41, i64 0, i64 %45
  store i8 %38, i8* %46, align 1
  br label %47

47:                                               ; preds = %34
  %48 = load i32, i32* %8, align 4
  %49 = add nsw i32 %48, 1
  store i32 %49, i32* %8, align 4
  br label %27

50:                                               ; preds = %27
  %51 = load i32, i32* %9, align 4
  %52 = sext i32 %51 to i64
  %53 = getelementptr inbounds [500 x [50 x i8]], [500 x [50 x i8]]* %4, i64 0, i64 %52
  %54 = load i32, i32* %8, align 4
  %55 = load i32, i32* %7, align 4
  %56 = sub nsw i32 %54, %55
  %57 = sext i32 %56 to i64
  %58 = getelementptr inbounds [50 x i8], [50 x i8]* %53, i64 0, i64 %57
  store i8 0, i8* %58, align 1
  %59 = load i32, i32* %9, align 4
  %60 = add nsw i32 %59, 1
  store i32 %60, i32* %9, align 4
  br label %61

61:                                               ; preds = %50
  %62 = load i32, i32* %7, align 4
  %63 = add nsw i32 %62, 1
  store i32 %63, i32* %7, align 4
  br label %19

64:                                               ; preds = %19
  store i32 0, i32* %7, align 4
  br label %65

65:                                               ; preds = %106, %64
  %66 = load i32, i32* %7, align 4
  %67 = load i32, i32* %9, align 4
  %68 = icmp slt i32 %66, %67
  br i1 %68, label %69, label %109

69:                                               ; preds = %65
  %70 = load i32, i32* %7, align 4
  store i32 %70, i32* %8, align 4
  br label %71

71:                                               ; preds = %102, %69
  %72 = load i32, i32* %8, align 4
  %73 = load i32, i32* %9, align 4
  %74 = icmp slt i32 %72, %73
  br i1 %74, label %75, label %105

75:                                               ; preds = %71
  %76 = load i32, i32* %8, align 4
  %77 = sext i32 %76 to i64
  %78 = getelementptr inbounds [500 x [50 x i8]], [500 x [50 x i8]]* %4, i64 0, i64 %77
  %79 = getelementptr inbounds [50 x i8], [50 x i8]* %78, i64 0, i64 0
  %80 = load i32, i32* %7, align 4
  %81 = sext i32 %80 to i64
  %82 = getelementptr inbounds [500 x [50 x i8]], [500 x [50 x i8]]* %4, i64 0, i64 %81
  %83 = getelementptr inbounds [50 x i8], [50 x i8]* %82, i64 0, i64 0
  %84 = call i32 @strcmp(i8* %79, i8* %83) #4
  %85 = icmp eq i32 %84, 0
  br i1 %85, label %86, label %101

86:                                               ; preds = %75
  %87 = load i32, i32* %8, align 4
  %88 = sext i32 %87 to i64
  %89 = getelementptr inbounds [500 x i32], [500 x i32]* %5, i64 0, i64 %88
  %90 = load i32, i32* %89, align 4
  %91 = icmp eq i32 %90, 0
  br i1 %91, label %92, label %101

92:                                               ; preds = %86
  %93 = load i32, i32* %7, align 4
  %94 = sext i32 %93 to i64
  %95 = getelementptr inbounds [500 x i32], [500 x i32]* %6, i64 0, i64 %94
  %96 = load i32, i32* %95, align 4
  %97 = add nsw i32 %96, 1
  store i32 %97, i32* %95, align 4
  %98 = load i32, i32* %8, align 4
  %99 = sext i32 %98 to i64
  %100 = getelementptr inbounds [500 x i32], [500 x i32]* %5, i64 0, i64 %99
  store i32 1, i32* %100, align 4
  br label %101

101:                                              ; preds = %92, %86, %75
  br label %102

102:                                              ; preds = %101
  %103 = load i32, i32* %8, align 4
  %104 = add nsw i32 %103, 1
  store i32 %104, i32* %8, align 4
  br label %71

105:                                              ; preds = %71
  br label %106

106:                                              ; preds = %105
  %107 = load i32, i32* %7, align 4
  %108 = add nsw i32 %107, 1
  store i32 %108, i32* %7, align 4
  br label %65

109:                                              ; preds = %65
  store i32 0, i32* %7, align 4
  br label %110

110:                                              ; preds = %127, %109
  %111 = load i32, i32* %7, align 4
  %112 = load i32, i32* %9, align 4
  %113 = icmp slt i32 %111, %112
  br i1 %113, label %114, label %130

114:                                              ; preds = %110
  %115 = load i32, i32* %7, align 4
  %116 = sext i32 %115 to i64
  %117 = getelementptr inbounds [500 x i32], [500 x i32]* %6, i64 0, i64 %116
  %118 = load i32, i32* %117, align 4
  %119 = load i32, i32* %10, align 4
  %120 = icmp sgt i32 %118, %119
  br i1 %120, label %121, label %126

121:                                              ; preds = %114
  %122 = load i32, i32* %7, align 4
  %123 = sext i32 %122 to i64
  %124 = getelementptr inbounds [500 x i32], [500 x i32]* %6, i64 0, i64 %123
  %125 = load i32, i32* %124, align 4
  store i32 %125, i32* %10, align 4
  br label %126

126:                                              ; preds = %121, %114
  br label %127

127:                                              ; preds = %126
  %128 = load i32, i32* %7, align 4
  %129 = add nsw i32 %128, 1
  store i32 %129, i32* %7, align 4
  br label %110

130:                                              ; preds = %110
  %131 = load i32, i32* %10, align 4
  %132 = icmp eq i32 %131, 1
  br i1 %132, label %133, label %135

133:                                              ; preds = %130
  %134 = call i32 (i8*, ...) @printf(i8* getelementptr inbounds ([3 x i8], [3 x i8]* @.str.2, i64 0, i64 0))
  br label %160

135:                                              ; preds = %130
  %136 = load i32, i32* %10, align 4
  %137 = call i32 (i8*, ...) @printf(i8* getelementptr inbounds ([4 x i8], [4 x i8]* @.str, i64 0, i64 0), i32 %136)
  store i32 0, i32* %7, align 4
  br label %138

138:                                              ; preds = %156, %135
  %139 = load i32, i32* %7, align 4
  %140 = load i32, i32* %9, align 4
  %141 = icmp slt i32 %139, %140
  br i1 %141, label %142, label %159

142:                                              ; preds = %138
  %143 = load i32, i32* %7, align 4
  %144 = sext i32 %143 to i64
  %145 = getelementptr inbounds [500 x i32], [500 x i32]* %6, i64 0, i64 %144
  %146 = load i32, i32* %145, align 4
  %147 = load i32, i32* %10, align 4
  %148 = icmp eq i32 %146, %147
  br i1 %148, label %149, label %155

149:                                              ; preds = %142
  %150 = load i32, i32* %7, align 4
  %151 = sext i32 %150 to i64
  %152 = getelementptr inbounds [500 x [50 x i8]], [500 x [50 x i8]]* %4, i64 0, i64 %151
  %153 = getelementptr inbounds [50 x i8], [50 x i8]* %152, i64 0, i64 0
  %154 = call i32 (i8*, ...) @printf(i8* getelementptr inbounds ([4 x i8], [4 x i8]* @.str.3, i64 0, i64 0), i8* %153)
  br label %155

155:                                              ; preds = %149, %142
  br label %156

156:                                              ; preds = %155
  %157 = load i32, i32* %7, align 4
  %158 = add nsw i32 %157, 1
  store i32 %158, i32* %7, align 4
  br label %138

159:                                              ; preds = %138
  br label %160

160:                                              ; preds = %159, %133
  ret void
}

; Function Attrs: argmemonly nounwind willreturn
declare void @llvm.memset.p0i8.i64(i8* nocapture writeonly, i8, i64, i1 immarg) #1

declare dso_local i32 @__isoc99_scanf(i8*, ...) #2

; Function Attrs: nounwind readonly
declare dso_local i64 @strlen(i8*) #3

; Function Attrs: nounwind readonly
declare dso_local i32 @strcmp(i8*, i8*) #3

declare dso_local i32 @printf(i8*, ...) #2


!llvm.module.flags = !{!0}
!llvm.ident = !{!1}

!0 = !{i32 1, !"wchar_size", i32 4}
!1 = !{!"clang version 10.0.0-4ubuntu1 "}
